	.file	"call_by_reference.c"
	.text
	.globl	add
	.type	add, @function
add:
.LFB0:
	.cfi_startproc
	endbr32
	pushl	%ebp
	.cfi_def_cfa_offset 8
	.cfi_offset 5, -8
	movl	%esp, %ebp
	.cfi_def_cfa_register 5
	call	__x86.get_pc_thunk.ax
	addl	$_GLOBAL_OFFSET_TABLE_, %eax
	movl	8(%ebp), %eax
	movl	(%eax), %edx
	movl	12(%ebp), %eax
	movl	(%eax), %eax
	addl	%eax, %edx
	movl	16(%ebp), %eax
	movl	%edx, (%eax)
	movl	16(%ebp), %eax
	movl	(%eax), %eax
	popl	%ebp
	.cfi_restore 5
	.cfi_def_cfa 4, 4
	ret
	.cfi_endproc
.LFE0:
	.size	add, .-add
	.globl	main
	.type	main, @function
main:
.LFB1:
	.cfi_startproc
	endbr32
	leal	4(%esp), %ecx
	.cfi_def_cfa 1, 0
	andl	$-16, %esp
	pushl	-4(%ecx)
	pushl	%ebp
	.cfi_escape 0x10,0x5,0x2,0x75,0
	movl	%esp, %ebp
	pushl	%ecx
	.cfi_escape 0xf,0x3,0x75,0x7c,0x6
	subl	$20, %esp
	call	__x86.get_pc_thunk.ax
	addl	$_GLOBAL_OFFSET_TABLE_, %eax
	movl	%gs:20, %eax
	movl	%eax, -12(%ebp)
	xorl	%eax, %eax
	movl	$10, -24(%ebp)
	movl	$20, -20(%ebp)
	leal	-16(%ebp), %eax
	pushl	%eax
	leal	-20(%ebp), %eax
	pushl	%eax
	leal	-24(%ebp), %eax
	pushl	%eax
	call	add
	addl	$12, %esp
	movl	%eax, -16(%ebp)
	movl	-16(%ebp), %eax
	movl	-12(%ebp), %edx
	xorl	%gs:20, %edx
	je	.L5
	call	__stack_chk_fail_local
.L5:
	movl	-4(%ebp), %ecx
	.cfi_def_cfa 1, 0
	leave
	.cfi_restore 5
	leal	-4(%ecx), %esp
	.cfi_def_cfa 4, 4
	ret
	.cfi_endproc
.LFE1:
	.size	main, .-main
	.section	.text.__x86.get_pc_thunk.ax,"axG",@progbits,__x86.get_pc_thunk.ax,comdat
	.globl	__x86.get_pc_thunk.ax
	.hidden	__x86.get_pc_thunk.ax
	.type	__x86.get_pc_thunk.ax, @function
__x86.get_pc_thunk.ax:
.LFB2:
	.cfi_startproc
	movl	(%esp), %eax
	ret
	.cfi_endproc
.LFE2:
	.hidden	__stack_chk_fail_local
	.ident	"GCC: (Ubuntu 9.3.0-17ubuntu1~20.04) 9.3.0"
	.section	.note.GNU-stack,"",@progbits
	.section	.note.gnu.property,"a"
	.align 4
	.long	 1f - 0f
	.long	 4f - 1f
	.long	 5
0:
	.string	 "GNU"
1:
	.align 4
	.long	 0xc0000002
	.long	 3f - 2f
2:
	.long	 0x3
3:
	.align 4
4:
