	.file	"switch.c"
	.text
	.section	.rodata
.LC0:
	.string	"Monday"
.LC1:
	.string	"Tuesday"
.LC2:
	.string	"Wednesday"
.LC3:
	.string	"Thursday"
.LC4:
	.string	"Friday"
.LC5:
	.string	"Weekend"
.LC6:
	.string	"End of Week"
	.text
	.globl	switch_eg
	.type	switch_eg, @function
switch_eg:
.LFB0:
	.cfi_startproc
	endbr32
	pushl	%ebp
	.cfi_def_cfa_offset 8
	.cfi_offset 5, -8
	movl	%esp, %ebp
	.cfi_def_cfa_register 5
	pushl	%ebx
	subl	$4, %esp
	.cfi_offset 3, -12
	call	__x86.get_pc_thunk.bx
	addl	$_GLOBAL_OFFSET_TABLE_, %ebx
	cmpl	$7, 8(%ebp)
	ja	.L2
	movl	8(%ebp), %eax
	sall	$2, %eax
	movl	.L4@GOTOFF(%eax,%ebx), %eax
	addl	%ebx, %eax
	notrack jmp	*%eax
	.section	.rodata
	.align 4
	.align 4
.L4:
	.long	.L2@GOTOFF
	.long	.L9@GOTOFF
	.long	.L8@GOTOFF
	.long	.L7@GOTOFF
	.long	.L6@GOTOFF
	.long	.L5@GOTOFF
	.long	.L3@GOTOFF
	.long	.L3@GOTOFF
	.text
.L9:
	subl	$12, %esp
	leal	.LC0@GOTOFF(%ebx), %eax
	pushl	%eax
	call	puts@PLT
	addl	$16, %esp
	jmp	.L10
.L8:
	subl	$12, %esp
	leal	.LC1@GOTOFF(%ebx), %eax
	pushl	%eax
	call	puts@PLT
	addl	$16, %esp
	jmp	.L10
.L7:
	subl	$12, %esp
	leal	.LC2@GOTOFF(%ebx), %eax
	pushl	%eax
	call	puts@PLT
	addl	$16, %esp
	jmp	.L10
.L6:
	subl	$12, %esp
	leal	.LC3@GOTOFF(%ebx), %eax
	pushl	%eax
	call	puts@PLT
	addl	$16, %esp
	jmp	.L10
.L5:
	subl	$12, %esp
	leal	.LC4@GOTOFF(%ebx), %eax
	pushl	%eax
	call	puts@PLT
	addl	$16, %esp
.L3:
	subl	$12, %esp
	leal	.LC5@GOTOFF(%ebx), %eax
	pushl	%eax
	call	puts@PLT
	addl	$16, %esp
	jmp	.L10
.L2:
	subl	$12, %esp
	leal	.LC6@GOTOFF(%ebx), %eax
	pushl	%eax
	call	puts@PLT
	addl	$16, %esp
	nop
.L10:
	movl	$0, %eax
	movl	-4(%ebp), %ebx
	leave
	.cfi_restore 5
	.cfi_restore 3
	.cfi_def_cfa 4, 4
	ret
	.cfi_endproc
.LFE0:
	.size	switch_eg, .-switch_eg
	.globl	main
	.type	main, @function
main:
.LFB1:
	.cfi_startproc
	endbr32
	leal	4(%esp), %ecx
	.cfi_def_cfa 1, 0
	andl	$-16, %esp
	pushl	-4(%ecx)
	pushl	%ebp
	.cfi_escape 0x10,0x5,0x2,0x75,0
	movl	%esp, %ebp
	pushl	%ecx
	.cfi_escape 0xf,0x3,0x75,0x7c,0x6
	subl	$20, %esp
	call	__x86.get_pc_thunk.ax
	addl	$_GLOBAL_OFFSET_TABLE_, %eax
	movl	$5, -12(%ebp)
	subl	$12, %esp
	pushl	-12(%ebp)
	call	switch_eg
	addl	$16, %esp
	movl	$0, %eax
	movl	-4(%ebp), %ecx
	.cfi_def_cfa 1, 0
	leave
	.cfi_restore 5
	leal	-4(%ecx), %esp
	.cfi_def_cfa 4, 4
	ret
	.cfi_endproc
.LFE1:
	.size	main, .-main
	.section	.text.__x86.get_pc_thunk.ax,"axG",@progbits,__x86.get_pc_thunk.ax,comdat
	.globl	__x86.get_pc_thunk.ax
	.hidden	__x86.get_pc_thunk.ax
	.type	__x86.get_pc_thunk.ax, @function
__x86.get_pc_thunk.ax:
.LFB2:
	.cfi_startproc
	movl	(%esp), %eax
	ret
	.cfi_endproc
.LFE2:
	.section	.text.__x86.get_pc_thunk.bx,"axG",@progbits,__x86.get_pc_thunk.bx,comdat
	.globl	__x86.get_pc_thunk.bx
	.hidden	__x86.get_pc_thunk.bx
	.type	__x86.get_pc_thunk.bx, @function
__x86.get_pc_thunk.bx:
.LFB3:
	.cfi_startproc
	movl	(%esp), %ebx
	ret
	.cfi_endproc
.LFE3:
	.ident	"GCC: (Ubuntu 9.3.0-17ubuntu1~20.04) 9.3.0"
	.section	.note.GNU-stack,"",@progbits
	.section	.note.gnu.property,"a"
	.align 4
	.long	 1f - 0f
	.long	 4f - 1f
	.long	 5
0:
	.string	 "GNU"
1:
	.align 4
	.long	 0xc0000002
	.long	 3f - 2f
2:
	.long	 0x3
3:
	.align 4
4:
