	.file	"factorial.c"
	.text
	.globl	factorial
	.type	factorial, @function
factorial:
.LFB6:
	.cfi_startproc
	endbr32
	pushl	%ebp
	.cfi_def_cfa_offset 8
	.cfi_offset 5, -8
	movl	%esp, %ebp
	.cfi_def_cfa_register 5
	subl	$8, %esp
	call	__x86.get_pc_thunk.ax
	addl	$_GLOBAL_OFFSET_TABLE_, %eax
	cmpl	$0, 8(%ebp)
	jne	.L2
	movl	$1, %eax
	jmp	.L3
.L2:
	movl	8(%ebp), %eax
	subl	$1, %eax
	subl	$12, %esp
	pushl	%eax
	call	factorial
	addl	$16, %esp
	imull	8(%ebp), %eax
.L3:
	leave
	.cfi_restore 5
	.cfi_def_cfa 4, 4
	ret
	.cfi_endproc
.LFE6:
	.size	factorial, .-factorial
	.section	.rodata
	.align 4
.LC0:
	.string	"Factorial of number %d is: %d\n"
	.text
	.globl	main
	.type	main, @function
main:
.LFB7:
	.cfi_startproc
	endbr32
	leal	4(%esp), %ecx
	.cfi_def_cfa 1, 0
	andl	$-16, %esp
	pushl	-4(%ecx)
	pushl	%ebp
	.cfi_escape 0x10,0x5,0x2,0x75,0
	movl	%esp, %ebp
	pushl	%ebx
	pushl	%ecx
	.cfi_escape 0xf,0x3,0x75,0x78,0x6
	.cfi_escape 0x10,0x3,0x2,0x75,0x7c
	subl	$16, %esp
	call	__x86.get_pc_thunk.bx
	addl	$_GLOBAL_OFFSET_TABLE_, %ebx
	movl	%ecx, %eax
	movl	4(%eax), %eax
	addl	$4, %eax
	movl	(%eax), %eax
	subl	$12, %esp
	pushl	%eax
	call	atoi@PLT
	addl	$16, %esp
	movl	%eax, -16(%ebp)
	subl	$12, %esp
	pushl	-16(%ebp)
	call	factorial
	addl	$16, %esp
	movl	%eax, -12(%ebp)
	subl	$4, %esp
	pushl	-12(%ebp)
	pushl	-16(%ebp)
	leal	.LC0@GOTOFF(%ebx), %eax
	pushl	%eax
	call	printf@PLT
	addl	$16, %esp
	movl	$0, %eax
	leal	-8(%ebp), %esp
	popl	%ecx
	.cfi_restore 1
	.cfi_def_cfa 1, 0
	popl	%ebx
	.cfi_restore 3
	popl	%ebp
	.cfi_restore 5
	leal	-4(%ecx), %esp
	.cfi_def_cfa 4, 4
	ret
	.cfi_endproc
.LFE7:
	.size	main, .-main
	.section	.text.__x86.get_pc_thunk.ax,"axG",@progbits,__x86.get_pc_thunk.ax,comdat
	.globl	__x86.get_pc_thunk.ax
	.hidden	__x86.get_pc_thunk.ax
	.type	__x86.get_pc_thunk.ax, @function
__x86.get_pc_thunk.ax:
.LFB8:
	.cfi_startproc
	movl	(%esp), %eax
	ret
	.cfi_endproc
.LFE8:
	.section	.text.__x86.get_pc_thunk.bx,"axG",@progbits,__x86.get_pc_thunk.bx,comdat
	.globl	__x86.get_pc_thunk.bx
	.hidden	__x86.get_pc_thunk.bx
	.type	__x86.get_pc_thunk.bx, @function
__x86.get_pc_thunk.bx:
.LFB9:
	.cfi_startproc
	movl	(%esp), %ebx
	ret
	.cfi_endproc
.LFE9:
	.ident	"GCC: (Ubuntu 9.3.0-17ubuntu1~20.04) 9.3.0"
	.section	.note.GNU-stack,"",@progbits
	.section	.note.gnu.property,"a"
	.align 4
	.long	 1f - 0f
	.long	 4f - 1f
	.long	 5
0:
	.string	 "GNU"
1:
	.align 4
	.long	 0xc0000002
	.long	 3f - 2f
2:
	.long	 0x3
3:
	.align 4
4:
