	.file	"fibonnaci.c"
	.text
	.section	.rodata
.LC0:
	.string	"%d\t"
	.text
	.globl	main
	.type	main, @function
main:
.LFB6:
	.cfi_startproc
	endbr32
	leal	4(%esp), %ecx
	.cfi_def_cfa 1, 0
	andl	$-16, %esp
	pushl	-4(%ecx)
	pushl	%ebp
	.cfi_escape 0x10,0x5,0x2,0x75,0
	movl	%esp, %ebp
	pushl	%ebx
	pushl	%ecx
	.cfi_escape 0xf,0x3,0x75,0x78,0x6
	.cfi_escape 0x10,0x3,0x2,0x75,0x7c
	subl	$32, %esp
	call	__x86.get_pc_thunk.bx
	addl	$_GLOBAL_OFFSET_TABLE_, %ebx
	movl	%ecx, %eax
	movl	4(%eax), %eax
	addl	$4, %eax
	movl	(%eax), %eax
	subl	$12, %esp
	pushl	%eax
	call	atoi@PLT
	addl	$16, %esp
	movl	%eax, -16(%ebp)
	movl	$0, -28(%ebp)
	movl	$1, -24(%ebp)
	movl	$1, -20(%ebp)
	jmp	.L2
.L3:
	subl	$8, %esp
	pushl	-28(%ebp)
	leal	.LC0@GOTOFF(%ebx), %eax
	pushl	%eax
	call	printf@PLT
	addl	$16, %esp
	movl	-28(%ebp), %edx
	movl	-24(%ebp), %eax
	addl	%edx, %eax
	movl	%eax, -12(%ebp)
	movl	-24(%ebp), %eax
	movl	%eax, -28(%ebp)
	movl	-12(%ebp), %eax
	movl	%eax, -24(%ebp)
	addl	$1, -20(%ebp)
.L2:
	movl	-20(%ebp), %eax
	cmpl	-16(%ebp), %eax
	jle	.L3
	movl	$0, %eax
	leal	-8(%ebp), %esp
	popl	%ecx
	.cfi_restore 1
	.cfi_def_cfa 1, 0
	popl	%ebx
	.cfi_restore 3
	popl	%ebp
	.cfi_restore 5
	leal	-4(%ecx), %esp
	.cfi_def_cfa 4, 4
	ret
	.cfi_endproc
.LFE6:
	.size	main, .-main
	.section	.text.__x86.get_pc_thunk.bx,"axG",@progbits,__x86.get_pc_thunk.bx,comdat
	.globl	__x86.get_pc_thunk.bx
	.hidden	__x86.get_pc_thunk.bx
	.type	__x86.get_pc_thunk.bx, @function
__x86.get_pc_thunk.bx:
.LFB7:
	.cfi_startproc
	movl	(%esp), %ebx
	ret
	.cfi_endproc
.LFE7:
	.ident	"GCC: (Ubuntu 9.3.0-17ubuntu1~20.04) 9.3.0"
	.section	.note.GNU-stack,"",@progbits
	.section	.note.gnu.property,"a"
	.align 4
	.long	 1f - 0f
	.long	 4f - 1f
	.long	 5
0:
	.string	 "GNU"
1:
	.align 4
	.long	 0xc0000002
	.long	 3f - 2f
2:
	.long	 0x3
3:
	.align 4
4:
