	.file	"leap_year.c"
	.text
	.globl	main
	.type	main, @function
main:
.LFB0:
	.cfi_startproc
	endbr32
	pushl	%ebp
	.cfi_def_cfa_offset 8
	.cfi_offset 5, -8
	movl	%esp, %ebp
	.cfi_def_cfa_register 5
	subl	$16, %esp
	call	__x86.get_pc_thunk.ax
	addl	$_GLOBAL_OFFSET_TABLE_, %eax
	movl	$2036, -8(%ebp)
	movl	$0, -4(%ebp)
	movl	-8(%ebp), %eax
	andl	$3, %eax
	testl	%eax, %eax
	jne	.L2
	movl	-8(%ebp), %ecx
	movl	$1374389535, %edx
	movl	%ecx, %eax
	imull	%edx
	sarl	$5, %edx
	movl	%ecx, %eax
	sarl	$31, %eax
	subl	%eax, %edx
	movl	%edx, %eax
	imull	$100, %eax, %eax
	subl	%eax, %ecx
	movl	%ecx, %eax
	testl	%eax, %eax
	jne	.L3
	movl	-8(%ebp), %ecx
	movl	$1374389535, %edx
	movl	%ecx, %eax
	imull	%edx
	sarl	$7, %edx
	movl	%ecx, %eax
	sarl	$31, %eax
	subl	%eax, %edx
	movl	%edx, %eax
	imull	$400, %eax, %eax
	subl	%eax, %ecx
	movl	%ecx, %eax
	testl	%eax, %eax
	jne	.L4
	movl	$1, -4(%ebp)
	jmp	.L5
.L4:
	movl	$0, -4(%ebp)
	jmp	.L5
.L3:
	movl	$1, -4(%ebp)
	jmp	.L5
.L2:
	movl	$0, -4(%ebp)
.L5:
	movl	$0, %eax
	leave
	.cfi_restore 5
	.cfi_def_cfa 4, 4
	ret
	.cfi_endproc
.LFE0:
	.size	main, .-main
	.section	.text.__x86.get_pc_thunk.ax,"axG",@progbits,__x86.get_pc_thunk.ax,comdat
	.globl	__x86.get_pc_thunk.ax
	.hidden	__x86.get_pc_thunk.ax
	.type	__x86.get_pc_thunk.ax, @function
__x86.get_pc_thunk.ax:
.LFB1:
	.cfi_startproc
	movl	(%esp), %eax
	ret
	.cfi_endproc
.LFE1:
	.ident	"GCC: (Ubuntu 9.3.0-17ubuntu1~20.04) 9.3.0"
	.section	.note.GNU-stack,"",@progbits
	.section	.note.gnu.property,"a"
	.align 4
	.long	 1f - 0f
	.long	 4f - 1f
	.long	 5
0:
	.string	 "GNU"
1:
	.align 4
	.long	 0xc0000002
	.long	 3f - 2f
2:
	.long	 0x3
3:
	.align 4
4:
